(dp1
S'output'
p2
S"<type 'exceptions.IndentationError'> unexpected indent (helper.py, line 177)"
p3
sS'layer'
p4
S'/home/pedro/TCC2/APP_WEB/web2py_lab/applications/laboratorio/models/helper.py'
p5
sS'code'
p6
S'def is_administrador(id_administrador):\n\tvalor = None\n\tquery1 = db.auth_membership.group_id == 1\n\tquery2 = db.auth_membership.user_id == id_administrador\n\tdbset = db(query1 & query2)\n\tif(dbset.select()):\n\t\tvalor = True\n\telse:\n\t\tvalor = False\n\n\treturn valor\n\ndef associated_email(email_usuario):\n\tvalor = False\n\temails = db(db.auth_user).select("email")\n\n\tfor email in emails:\n\t\tif email_usuario == email.email:\n\t\t\tvalor = True\n\n\treturn valor\n\ndef is_dat(file):\n\tvalidator = False\n\tfilename = file[\'arquivo\'].filename\n\tfilename = filename[-4:]\n\tif filename == ".dat":\n\t\tvalidator = True\n\treturn validator\n\ndef check_NAN(list_fields):\n\tindice = 0\n\tfor value in list_fields:\n\t\tif value == "\\"NAN\\"":\n\t\t\tlist_fields[indice] = None\n\t\tindice = indice + 1\n\treturn list_fields\n\ndef extract_fields(line):\n\tlist_fields = line.split(",")\n\tlist_fields[0] = list_fields[0].replace(\'"\',\'\')\n\tlist_fields = check_NAN(list_fields)\n\ttam = len(list_fields)\n\tfields = [tam,list_fields]\n\treturn fields\n\ndef is_persisted(dia_hora):\n\tregistro = None\n\tif db(db.baixa1.dia_hora == dia_hora).select():\n\t\tregistro = True\n\telse:\n\t\tregistro = False\n\treturn registro\n\ndef insert_baixa1(lista):\n\tpersistido = is_persisted(lista[0])\n\tvalidator = None\n\tif not persistido:\n\t    validator = db.baixa1.insert(dia_hora = lista[0], record=lista[1], batt_volt_min=lista[2], p_temp=lista[3], nr_lite_avg=lista[4],\n                             \t\tcm3_up_avg=lista[5], cm3_dn_avg=lista[6], cg3_up_corr_avg = lista[7], cg3_dn_corr_avg = lista[8], cnr1_tc_avg = lista[9],\n                             \t\tcma11_up_avg=lista[10],cma11_dn_avg=lista[11], li_190s_avg=lista[12],vw_avg = lista[13], hfp01_avg=lista[14],\n                             \t\tstp01_50cm_avg = lista[15], stp01_20cm_avg = lista[16], stp01_10cm_avg = lista[17], stp01_05cm_avg = lista[18],\n                             \t\tstp01_02cm_avg = lista[19], cs106_avg = lista[20], hmp45c_temp_avg = lista[21], hmp45c_rh_avg = lista[22],\n                             \t\twind_speed = lista[23], win_direction = lista[24], tb4_tot = lista[25])\n\t    return validator\n\telse:\n\t\treturn False\n\ndef process_file(file):\n\tresult = []\n\tfields = None\n\tinconsistent_tuples_min = []\n\tinconsistent_tuples_max = []\n\ttuplas_not_persisted = []\n\tlineCounter = 0\n\tcounter_inconsistent_tuples_min = 0\n\tcounter_inconsistent_tuples_max = 0\n\tcounter_tuplas_no_persisted = 0\n\tcounter_tuplas_persisted = 0\n\tarchive = file[\'arquivo\'].file\n\n\tfor line in archive.readlines():\n\t\tif lineCounter < 4:\n\t\t\tlineCounter = lineCounter + 1\n\t\telse:\n\t\t\tfields = extract_fields(line)\n\t\t\tlist_size = len(fields[1])\n\n\t\t\tif list_size == 26:\n\t\t\t\tif not insert_baixa1(fields[1]):\n\t\t\t\t\tcounter_tuplas_no_persisted = counter_tuplas_no_persisted + 1\n\t\t\t\t\ttuplas_not_persisted.append(fields[1])\n\t\t\t\telse:\n\t\t\t\t\tcounter_tuplas_persisted = counter_tuplas_persisted + 1\n\t\t\telif list_size < 26:\n\t\t\t\tinconsistent_tuples_min.append(fields[1])\n\t\t\t\tcounter_inconsistent_tuples_min = counter_inconsistent_tuples_min + 1\n\t\t\telse:\n\t\t\t\tinconsistent_tuples_max.append(fields[1])\n\t\t\t\tcounter_inconsistent_tuples_max = counter_inconsistent_tuples_max + 1\n\t\t\tlineCounter = lineCounter + 1\n\n\tlineCounter = lineCounter - 4\n\tresult = [lineCounter, counter_tuplas_persisted, counter_tuplas_no_persisted, tuplas_not_persisted,\n\t\t\t\tcounter_inconsistent_tuples_min, inconsistent_tuples_min, counter_inconsistent_tuples_max, inconsistent_tuples_max]\n\treturn result\n\ndef process_data(data):\n    if data[0] == \'\':\n        min = db.baixa1.dia_hora.min()\n        data[0] = db().select(min).first()[min]\n\n    if data[1] == \'\':\n        max = db.baixa1.dia_hora.max()\n        data[1] = db().select(max).first()[max]\n    return data\n\ndef converte_mes_por_extenso(ano):\n    ano_por_extenso = {1:\'Janeiro\',2:\'Fevereiro\', 3:\'Mar\xc3\xa7o\',\n                       4:\'Abril\',5:\'Maio\',6:\'Junho\',7:\'Julho\',\n                       8:\'Agosto\',9:\'Setembro\',10:\'Outubro\',\n                       11:\'Novembro\',12:\'Dezembro\'}\n    return ano_por_extenso[ano]\n\n#Obt\xc3\xa9m o menor e maior ano salvos\ndef get_min_max_years():\n    min = db.baixa1.dia_hora.year().min()\n    ano_min = db().select(min).first()[min]\n    max = db.baixa1.dia_hora.year().max()\n    ano_max = db().select(max).first()[max]\n    years = {\'min\':ano_min,\'max\':ano_max}\n    return years\n\n# Cria o dicion\xc3\xa1rio de disponibilidade de medi\xc3\xa7\xc3\xb5es\ndef cria_dic_med():\n    dicionario = {}\n    for i in range(1,32):\n        dicionario[i]=[0,\'cal-inativa\']\n    return dicionario\n\n# Retorna uma lista com a frequ\xc3\xaancia de medi\xc3\xa7\xc3\xb5es do m\xc3\xaas e ano solicitado\ndef lista_de_disponibilidade(ano,mes):\n    lista_dip = cria_dic_med()\n    query1 = (db.baixa1.dia_hora.year() == ano) & (db.baixa1.dia_hora.month() == mes)\n    verifica = db(query1).isempty()\n    if verifica is False:\n        for dia in range(1,32):\n            query2 = (db.baixa1.dia_hora.year() == ano) & (db.baixa1.dia_hora.month() == mes) & (db.baixa1.dia_hora.day() == dia)\n            qtd = int(db(query2).count())\n            if (qtd == 0):\n                lista_dip[dia][1] = \'cal-vazia\'\n            elif qtd == 144:\n                lista_dip[dia][1] = \'cal-completa\'\n            else:\n                lista_dip[dia][1] = \'cal-incompleta\'\n            lista_dip[dia][0] = qtd\n    return(lista_dip)\n\ndef converte_celsius_para_farenheit(temp_celsius):\n    temp_farenheit = 1.8*temp_celsius + 32\n    return(temp_farenheit)\n\ndef converte_farenheit_para_celsius(temp_farenheit):\n    temp_celsius = (temp_farenheit - 32)/1.8\n    return(temp_celsius)\n\ndef get_temp_min(dia,mes,ano):\n    query_data = (db.baixa1.dia_hora.year()==ano)&(db.baixa1.dia_hora.month()==mes)&(db.baixa1.dia_hora.day()==dia)\n    query_min = db(query_data).db.baixa1.p_temp.min()\n    temp_min = db().select(query_min).first()[query_min]\n    return(temp_min)\n\ndef get_temp_max(dia,mes,ano):\n    query_data = (db.baixa1.dia_hora.year()==ano)&(db.baixa1.dia_hora.month()==mes)&(db.baixa1.dia_hora.day()==dia)\n    query_max = db(query_data).select(db.baixa1.p_temp)\n    print "Print de query_data:"\n\tprint query_data\n    print "Print de query_max:"\n    print query_max\n    print "Aqui acaba as impress\xc3\xb5es!"\n    return(1)'
p7
sS'snapshot'
p8
(dp9
S'exception'
p10
(dp11
S'__getslice__'
p12
S"<method-wrapper '__getslice__' of exceptions.IndentationError object>"
p13
sS'text'
p14
S"'\\tprint query_data\\n'"
p15
sS'__str__'
p16
S"<method-wrapper '__str__' of exceptions.IndentationError object>"
p17
sS'__reduce__'
p18
S'<built-in method __reduce__ of exceptions.IndentationError object>'
p19
sS'__dict__'
p20
S'{}'
p21
sS'__sizeof__'
p22
S'<built-in method __sizeof__ of exceptions.IndentationError object>'
p23
sS'__init__'
p24
S"<method-wrapper '__init__' of exceptions.IndentationError object>"
p25
sS'__setattr__'
p26
S"<method-wrapper '__setattr__' of exceptions.IndentationError object>"
p27
sS'__reduce_ex__'
p28
S'<built-in method __reduce_ex__ of exceptions.IndentationError object>'
p29
sS'__new__'
p30
S'<built-in method __new__ of type object>'
p31
sS'__format__'
p32
S'<built-in method __format__ of exceptions.IndentationError object>'
p33
sS'__class__'
p34
S"<type 'exceptions.IndentationError'>"
p35
sS'filename'
p36
S"'/home/pedro/TCC2/APP_WEB/web2py_lab/applications/laboratorio/models/helper.py'"
p37
sS'lineno'
p38
S'177'
p39
sS'msg'
p40
S"'unexpected indent'"
p41
sS'__doc__'
p42
S"'Improper indentation.'"
p43
sS'__getitem__'
p44
S"<method-wrapper '__getitem__' of exceptions.IndentationError object>"
p45
sS'__setstate__'
p46
S'<built-in method __setstate__ of exceptions.IndentationError object>'
p47
sS'__getattribute__'
p48
S"<method-wrapper '__getattribute__' of exceptions.IndentationError object>"
p49
sS'print_file_and_line'
p50
S'None'
p51
sS'args'
p52
S"('unexpected indent', ('/home/pedro/TCC2/APP_WEB/web2py_lab/applications/laboratorio/models/helper.py', 177, 1, '\\tprint query_data\\n'))"
p53
sS'__subclasshook__'
p54
S'<built-in method __subclasshook__ of type object>'
p55
sS'offset'
p56
S'1'
sS'__unicode__'
p57
S'<built-in method __unicode__ of exceptions.IndentationError object>'
p58
sS'__delattr__'
p59
S"<method-wrapper '__delattr__' of exceptions.IndentationError object>"
p60
sS'__repr__'
p61
S"<method-wrapper '__repr__' of exceptions.IndentationError object>"
p62
sS'__hash__'
p63
S"<method-wrapper '__hash__' of exceptions.IndentationError object>"
p64
ssS'evalue'
p65
S'unexpected indent (helper.py, line 177)'
p66
sS'request'
p67
cgluon.html
XML_unpickle
p68
(S's\xc5S\x00\x00<div><table><tr><td style="font-weight:bold;vertical-align:top;">ajax</td><td style="vertical-align:top;">:</td><td><div>False</div></td></tr><tr><td style="font-weight:bold;vertical-align:top;">application</td><td style="vertical-align:top;">:</td><td><div>laboratorio</div></td></tr><tr><td style="font-weight:bold;vertical-align:top;">args</td><td style="vertical-align:top;">:</td><td><div><table></table></div></td></tr><tr><td style="font-weight:bold;vertical-align:top;">cid</td><td style="vertical-align:top;">:</td><td><div>None</div></td></tr><tr><td style="font-weight:bold;vertical-align:top;">client</td><td style="vertical-align:top;">:</td><td><div>127.0.0.1</div></td></tr><tr><td style="font-weight:bold;vertical-align:top;">controller</td><td style="vertical-align:top;">:</td><td><div>home</div></td></tr><tr><td style="font-weight:bold;vertical-align:top;">cookies</td><td style="vertical-align:top;">:</td><td><div><table><tr><td style="font-weight:bold;vertical-align:top;">session_id_admin</td><td style="vertical-align:top;">:</td><td><div>127.0.0.1-67294bc1-38ca-4ced-9fbf-081dcad10f80<table><tr><td style="font-weight:bold;vertical-align:top;">comment</td><td style="vertical-align:top;">:</td><td><div></div></td></tr><tr><td style="font-weight:bold;vertical-align:top;">domain</td><td style="vertical-align:top;">:</td><td><div></div></td></tr><tr><td style="font-weight:bold;vertical-align:top;">expires</td><td style="vertical-align:top;">:</td><td><div></div></td></tr><tr><td style="font-weight:bold;vertical-align:top;">httponly</td><td style="vertical-align:top;">:</td><td><div></div></td></tr><tr><td style="font-weight:bold;vertical-align:top;">max-age</td><td style="vertical-align:top;">:</td><td><div></div></td></tr><tr><td style="font-weight:bold;vertical-align:top;">path</td><td style="vertical-align:top;">:</td><td><div></div></td></tr><tr><td style="font-weight:bold;vertical-align:top;">secure</td><td style="vertical-align:top;">:</td><td><div></div></td></tr><tr><td style="font-weight:bold;vertical-align:top;">version</td><td style="vertical-align:top;">:</td><td><div></div></td></tr></table></div></td></tr><tr><td style="font-weight:bold;vertical-align:top;">session_id_laboratorio</td><td style="vertical-align:top;">:</td><td><div>127.0.0.1-1a7613b3-e5e7-4b17-839f-f79c53a49c74<table><tr><td style="font-weight:bold;vertical-align:top;">comment</td><td style="vertical-align:top;">:</td><td><div></div></td></tr><tr><td style="font-weight:bold;vertical-align:top;">domain</td><td style="vertical-align:top;">:</td><td><div></div></td></tr><tr><td style="font-weight:bold;vertical-align:top;">expires</td><td style="vertical-align:top;">:</td><td><div></div></td></tr><tr><td style="font-weight:bold;vertical-align:top;">httponly</td><td style="vertical-align:top;">:</td><td><div></div></td></tr><tr><td style="font-weight:bold;vertical-align:top;">max-age</td><td style="vertical-align:top;">:</td><td><div></div></td></tr><tr><td style="font-weight:bold;vertical-align:top;">path</td><td style="vertical-align:top;">:</td><td><div></div></td></tr><tr><td style="font-weight:bold;vertical-align:top;">secure</td><td style="vertical-align:top;">:</td><td><div></div></td></tr><tr><td style="font-weight:bold;vertical-align:top;">version</td><td style="vertical-align:top;">:</td><td><div></div></td></tr></table></div></td></tr></table></div></td></tr><tr><td style="font-weight:bold;vertical-align:top;">env</td><td style="vertical-align:top;">:</td><td><div><table><tr><td style="font-weight:bold;vertical-align:top;">HTTP_ACCEPT</td><td style="vertical-align:top;">:</td><td><div>text/html,application/xhtml+xml,application/xml;q=0.9,*/*;q=0.8</div></td></tr><tr><td style="font-weight:bold;vertical-align:top;">HTTP_ACCEPT_ENCODING</td><td style="vertical-align:top;">:</td><td><div>gzip, deflate</div></td></tr><tr><td style="font-weight:bold;vertical-align:top;">HTTP_ACCEPT_LANGUAGE</td><td style="vertical-align:top;">:</td><td><div>pt-BR,pt;q=0.8,en-US;q=0.5,en;q=0.3</div></td></tr><tr><td style="font-weight:bold;vertical-align:top;">HTTP_CONNECTION</td><td style="vertical-align:top;">:</td><td><div>keep-alive</div></td></tr><tr><td style="font-weight:bold;vertical-align:top;">HTTP_COOKIE</td><td style="vertical-align:top;">:</td><td><div>session_id_laboratorio=127.0.0.1-1a7613b3-e5e7-4b17-839f-f79c53a49c74; session_id_admin=127.0.0.1-67294bc1-38ca-4ced-9fbf-081dcad10f80</div></td></tr><tr><td style="font-weight:bold;vertical-align:top;">HTTP_HOST</td><td style="vertical-align:top;">:</td><td><div>127.0.0.1:8000</div></td></tr><tr><td style="font-weight:bold;vertical-align:top;">HTTP_UPGRADE_INSECURE_REQUESTS</td><td style="vertical-align:top;">:</td><td><div>1</div></td></tr><tr><td style="font-weight:bold;vertical-align:top;">HTTP_USER_AGENT</td><td style="vertical-align:top;">:</td><td><div>Mozilla/5.0 (X11; Ubuntu; Linux x86_64; rv:56.0) Gecko/20100101 Firefox/56.0</div></td></tr><tr><td style="font-weight:bold;vertical-align:top;">PATH_INFO</td><td style="vertical-align:top;">:</td><td><div>/</div></td></tr><tr><td style="font-weight:bold;vertical-align:top;">QUERY_STRING</td><td style="vertical-align:top;">:</td><td><div></div></td></tr><tr><td style="font-weight:bold;vertical-align:top;">REMOTE_ADDR</td><td style="vertical-align:top;">:</td><td><div>127.0.0.1</div></td></tr><tr><td style="font-weight:bold;vertical-align:top;">REMOTE_PORT</td><td style="vertical-align:top;">:</td><td><div>50854</div></td></tr><tr><td style="font-weight:bold;vertical-align:top;">REQUEST_METHOD</td><td style="vertical-align:top;">:</td><td><div>GET</div></td></tr><tr><td style="font-weight:bold;vertical-align:top;">SCRIPT_NAME</td><td style="vertical-align:top;">:</td><td><div></div></td></tr><tr><td style="font-weight:bold;vertical-align:top;">SERVER_NAME</td><td style="vertical-align:top;">:</td><td><div>ribeiro</div></td></tr><tr><td style="font-weight:bold;vertical-align:top;">SERVER_PORT</td><td style="vertical-align:top;">:</td><td><div>8000</div></td></tr><tr><td style="font-weight:bold;vertical-align:top;">SERVER_PROTOCOL</td><td style="vertical-align:top;">:</td><td><div>HTTP/1.1</div></td></tr><tr><td style="font-weight:bold;vertical-align:top;">SERVER_SOFTWARE</td><td style="vertical-align:top;">:</td><td><div>Rocket 1.2.6</div></td></tr><tr><td style="font-weight:bold;vertical-align:top;">app_folders</td><td style="vertical-align:top;">:</td><td><div>set([&#x27;/home/pedro/TCC2/APP_WEB/web2py_lab/applications/admin/&#x27;, &#x27;/home/pedro/TCC2/APP_WEB/web2py_lab/applications/laboratorio/&#x27;])</div></td></tr><tr><td style="font-weight:bold;vertical-align:top;">applications_parent</td><td style="vertical-align:top;">:</td><td><div>/home/pedro/TCC2/APP_WEB/web2py_lab</div></td></tr><tr><td style="font-weight:bold;vertical-align:top;">cmd_args</td><td style="vertical-align:top;">:</td><td><div><table></table></div></td></tr><tr><td style="font-weight:bold;vertical-align:top;">cmd_options</td><td style="vertical-align:top;">:</td><td><div>&lt;Values at 0x7fe6ae2cd680: {&#x27;verbose&#x27;: False, &#x27;ip&#x27;: &#x27;127.0.0.1&#x27;, &#x27;debuglevel&#x27;: 30, &#x27;with_scheduler&#x27;: False, &#x27;shutdown_timeout&#x27;: 5, &#x27;taskbar&#x27;: False, &#x27;with_coverage&#x27;: False, &#x27;pid_filename&#x27;: &#x27;httpserver.pid&#x27;, &#x27;maxthreads&#x27;: None, &#x27;softcron&#x27;: False, &#x27;server_name&#x27;: &#x27;ribeiro&#x27;, &#x27;bpython&#x27;: False, &#x27;nogui&#x27;: False, &#x27;port&#x27;: 8000, &#x27;print_errors&#x27;: False, &#x27;extcron&#x27;: False, &#x27;runcron&#x27;: False, &#x27;run_system_tests&#x27;: False, &#x27;test&#x27;: None, &#x27;folder&#x27;: &#x27;/home/pedro/TCC2/APP_WEB/web2py_lab&#x27;, &#x27;config&#x27;: &#x27;&#x27;, &#x27;minthreads&#x27;: None, &#x27;shell&#x27;: None, &#x27;run&#x27;: &#x27;&#x27;, &#x27;log_filename&#x27;: &#x27;httpserver.log&#x27;, &#x27;profiler_dir&#x27;: None, &#x27;args&#x27;: [&#x27;&#x27;], &#x27;socket_timeout&#x27;: 5, &#x27;ssl_ca_certificate&#x27;: None, &#x27;scheduler&#x27;: None, &#x27;interfaces&#x27;: None, &#x27;ssl_private_key&#x27;: &#x27;&#x27;, &#x27;gae&#x27;: None, &#x27;password&#x27;: &#x27;******&#x27;, &#x27;request_queue_size&#x27;: 5, &#x27;ssl_certificate&#x27;: &#x27;&#x27;, &#x27;cronjob&#x27;: False, &#x27;numthreads&#x27;: None, &#x27;quiet&#x27;: False, &#x27;import_models&#x27;: False, &#x27;timeout&#x27;: 10, &#x27;plain&#x27;: False, &#x27;nobanner&#x27;: False}&gt;</div></td></tr><tr><td style="font-weight:bold;vertical-align:top;">db_sessions</td><td style="vertical-align:top;">:</td><td><div>set([])</div></td></tr><tr><td style="font-weight:bold;vertical-align:top;">debugging</td><td style="vertical-align:top;">:</td><td><div>False</div></td></tr><tr><td style="font-weight:bold;vertical-align:top;">gluon_parent</td><td style="vertical-align:top;">:</td><td><div>/home/pedro/TCC2/APP_WEB/web2py_lab</div></td></tr><tr><td style="font-weight:bold;vertical-align:top;">http_accept</td><td style="vertical-align:top;">:</td><td><div>text/html,application/xhtml+xml,application/xml;q=0.9,*/*;q=0.8</div></td></tr><tr><td style="font-weight:bold;vertical-align:top;">http_accept_encoding</td><td style="vertical-align:top;">:</td><td><div>gzip, deflate</div></td></tr><tr><td style="font-weight:bold;vertical-align:top;">http_accept_language</td><td style="vertical-align:top;">:</td><td><div>pt-BR,pt;q=0.8,en-US;q=0.5,en;q=0.3</div></td></tr><tr><td style="font-weight:bold;vertical-align:top;">http_connection</td><td style="vertical-align:top;">:</td><td><div>keep-alive</div></td></tr><tr><td style="font-weight:bold;vertical-align:top;">http_cookie</td><td style="vertical-align:top;">:</td><td><div>session_id_laboratorio=127.0.0.1-1a7613b3-e5e7-4b17-839f-f79c53a49c74; session_id_admin=127.0.0.1-67294bc1-38ca-4ced-9fbf-081dcad10f80</div></td></tr><tr><td style="font-weight:bold;vertical-align:top;">http_host</td><td style="vertical-align:top;">:</td><td><div>127.0.0.1:8000</div></td></tr><tr><td style="font-weight:bold;vertical-align:top;">http_upgrade_insecure_requests</td><td style="vertical-align:top;">:</td><td><div>1</div></td></tr><tr><td style="font-weight:bold;vertical-align:top;">http_user_agent</td><td style="vertical-align:top;">:</td><td><div>Mozilla/5.0 (X11; Ubuntu; Linux x86_64; rv:56.0) Gecko/20100101 Firefox/56.0</div></td></tr><tr><td style="font-weight:bold;vertical-align:top;">is_jython</td><td style="vertical-align:top;">:</td><td><div>False</div></td></tr><tr><td style="font-weight:bold;vertical-align:top;">is_pypy</td><td style="vertical-align:top;">:</td><td><div>False</div></td></tr><tr><td style="font-weight:bold;vertical-align:top;">is_source</td><td style="vertical-align:top;">:</td><td><div>True</div></td></tr><tr><td style="font-weight:bold;vertical-align:top;">local_hosts</td><td style="vertical-align:top;">:</td><td><div><table><tr><td><div>127.0.1.1</div></td></tr><tr><td><div>::1</div></td></tr><tr><td><div>ribeiro</div></td></tr><tr><td><div>::ffff:127.0.0.1</div></td></tr><tr><td><div>127.0.0.1</div></td></tr></table></div></td></tr><tr><td style="font-weight:bold;vertical-align:top;">path_info</td><td style="vertical-align:top;">:</td><td><div>/</div></td></tr><tr><td style="font-weight:bold;vertical-align:top;">query_string</td><td style="vertical-align:top;">:</td><td><div></div></td></tr><tr><td style="font-weight:bold;vertical-align:top;">remote_addr</td><td style="vertical-align:top;">:</td><td><div>127.0.0.1</div></td></tr><tr><td style="font-weight:bold;vertical-align:top;">remote_port</td><td style="vertical-align:top;">:</td><td><div>50854</div></td></tr><tr><td style="font-weight:bold;vertical-align:top;">request_method</td><td style="vertical-align:top;">:</td><td><div>GET</div></td></tr><tr><td style="font-weight:bold;vertical-align:top;">request_uri</td><td style="vertical-align:top;">:</td><td><div>/laboratorio/home/index</div></td></tr><tr><td style="font-weight:bold;vertical-align:top;">script_name</td><td style="vertical-align:top;">:</td><td><div></div></td></tr><tr><td style="font-weight:bold;vertical-align:top;">server_name</td><td style="vertical-align:top;">:</td><td><div>ribeiro</div></td></tr><tr><td style="font-weight:bold;vertical-align:top;">server_port</td><td style="vertical-align:top;">:</td><td><div>8000</div></td></tr><tr><td style="font-weight:bold;vertical-align:top;">server_protocol</td><td style="vertical-align:top;">:</td><td><div>HTTP/1.1</div></td></tr><tr><td style="font-weight:bold;vertical-align:top;">server_software</td><td style="vertical-align:top;">:</td><td><div>Rocket 1.2.6</div></td></tr><tr><td style="font-weight:bold;vertical-align:top;">web2py_original_uri</td><td style="vertical-align:top;">:</td><td><div>/</div></td></tr><tr><td style="font-weight:bold;vertical-align:top;">web2py_path</td><td style="vertical-align:top;">:</td><td><div>/home/pedro/TCC2/APP_WEB/web2py_lab</div></td></tr><tr><td style="font-weight:bold;vertical-align:top;">web2py_version</td><td style="vertical-align:top;">:</td><td><div>2.14.6-stable+timestamp.2016.05.10.00.21.47</div></td></tr><tr><td style="font-weight:bold;vertical-align:top;">wsgi.errors</td><td style="vertical-align:top;">:</td><td><div>&lt;open file &#x27;&lt;stderr&gt;&#x27;, mode &#x27;w&#x27; at 0x7fe6b581e1e0&gt;</div></td></tr><tr><td style="font-weight:bold;vertical-align:top;">wsgi.file_wrapper</td><td style="vertical-align:top;">:</td><td><div>&lt;class wsgiref.util.FileWrapper at 0x7fe6ae366ae0&gt;</div></td></tr><tr><td style="font-weight:bold;vertical-align:top;">wsgi.input</td><td style="vertical-align:top;">:</td><td><div>&lt;socket._fileobject object at 0x7fe684ee2f50&gt;</div></td></tr><tr><td style="font-weight:bold;vertical-align:top;">wsgi.multiprocess</td><td style="vertical-align:top;">:</td><td><div>False</div></td></tr><tr><td style="font-weight:bold;vertical-align:top;">wsgi.multithread</td><td style="vertical-align:top;">:</td><td><div>True</div></td></tr><tr><td style="font-weight:bold;vertical-align:top;">wsgi.run_once</td><td style="vertical-align:top;">:</td><td><div>False</div></td></tr><tr><td style="font-weight:bold;vertical-align:top;">wsgi.url_scheme</td><td style="vertical-align:top;">:</td><td><div>http</div></td></tr><tr><td style="font-weight:bold;vertical-align:top;">wsgi.version</td><td style="vertical-align:top;">:</td><td><div><table><tr><td><div>1</div></td></tr><tr><td><div>0</div></td></tr></table></div></td></tr><tr><td style="font-weight:bold;vertical-align:top;">wsgi_errors</td><td style="vertical-align:top;">:</td><td><div>&lt;open file &#x27;&lt;stderr&gt;&#x27;, mode &#x27;w&#x27; at 0x7fe6b581e1e0&gt;</div></td></tr><tr><td style="font-weight:bold;vertical-align:top;">wsgi_file_wrapper</td><td style="vertical-align:top;">:</td><td><div>&lt;class wsgiref.util.FileWrapper at 0x7fe6ae366ae0&gt;</div></td></tr><tr><td style="font-weight:bold;vertical-align:top;">wsgi_input</td><td style="vertical-align:top;">:</td><td><div>&lt;socket._fileobject object at 0x7fe684ee2f50&gt;</div></td></tr><tr><td style="font-weight:bold;vertical-align:top;">wsgi_multiprocess</td><td style="vertical-align:top;">:</td><td><div>False</div></td></tr><tr><td style="font-weight:bold;vertical-align:top;">wsgi_multithread</td><td style="vertical-align:top;">:</td><td><div>True</div></td></tr><tr><td style="font-weight:bold;vertical-align:top;">wsgi_run_once</td><td style="vertical-align:top;">:</td><td><div>False</div></td></tr><tr><td style="font-weight:bold;vertical-align:top;">wsgi_url_scheme</td><td style="vertical-align:top;">:</td><td><div>http</div></td></tr><tr><td style="font-weight:bold;vertical-align:top;">wsgi_version</td><td style="vertical-align:top;">:</td><td><div><table><tr><td><div>1</div></td></tr><tr><td><div>0</div></td></tr></table></div></td></tr></table></div></td></tr><tr><td style="font-weight:bold;vertical-align:top;">extension</td><td style="vertical-align:top;">:</td><td><div>html</div></td></tr><tr><td style="font-weight:bold;vertical-align:top;">folder</td><td style="vertical-align:top;">:</td><td><div>/home/pedro/TCC2/APP_WEB/web2py_lab/applications/laboratorio/</div></td></tr><tr><td style="font-weight:bold;vertical-align:top;">function</td><td style="vertical-align:top;">:</td><td><div>index</div></td></tr><tr><td style="font-weight:bold;vertical-align:top;">global_settings</td><td style="vertical-align:top;">:</td><td><div><table><tr><td style="font-weight:bold;vertical-align:top;">app_folders</td><td style="vertical-align:top;">:</td><td><div>set([&#x27;/home/pedro/TCC2/APP_WEB/web2py_lab/applications/admin/&#x27;, &#x27;/home/pedro/TCC2/APP_WEB/web2py_lab/applications/laboratorio/&#x27;])</div></td></tr><tr><td style="font-weight:bold;vertical-align:top;">applications_parent</td><td style="vertical-align:top;">:</td><td><div>/home/pedro/TCC2/APP_WEB/web2py_lab</div></td></tr><tr><td style="font-weight:bold;vertical-align:top;">cmd_args</td><td style="vertical-align:top;">:</td><td><div><table></table></div></td></tr><tr><td style="font-weight:bold;vertical-align:top;">cmd_options</td><td style="vertical-align:top;">:</td><td><div>&lt;Values at 0x7fe6ae2cd680: {&#x27;verbose&#x27;: False, &#x27;ip&#x27;: &#x27;127.0.0.1&#x27;, &#x27;debuglevel&#x27;: 30, &#x27;with_scheduler&#x27;: False, &#x27;shutdown_timeout&#x27;: 5, &#x27;taskbar&#x27;: False, &#x27;with_coverage&#x27;: False, &#x27;pid_filename&#x27;: &#x27;httpserver.pid&#x27;, &#x27;maxthreads&#x27;: None, &#x27;softcron&#x27;: False, &#x27;server_name&#x27;: &#x27;ribeiro&#x27;, &#x27;bpython&#x27;: False, &#x27;nogui&#x27;: False, &#x27;port&#x27;: 8000, &#x27;print_errors&#x27;: False, &#x27;extcron&#x27;: False, &#x27;runcron&#x27;: False, &#x27;run_system_tests&#x27;: False, &#x27;test&#x27;: None, &#x27;folder&#x27;: &#x27;/home/pedro/TCC2/APP_WEB/web2py_lab&#x27;, &#x27;config&#x27;: &#x27;&#x27;, &#x27;minthreads&#x27;: None, &#x27;shell&#x27;: None, &#x27;run&#x27;: &#x27;&#x27;, &#x27;log_filename&#x27;: &#x27;httpserver.log&#x27;, &#x27;profiler_dir&#x27;: None, &#x27;args&#x27;: [&#x27;&#x27;], &#x27;socket_timeout&#x27;: 5, &#x27;ssl_ca_certificate&#x27;: None, &#x27;scheduler&#x27;: None, &#x27;interfaces&#x27;: None, &#x27;ssl_private_key&#x27;: &#x27;&#x27;, &#x27;gae&#x27;: None, &#x27;password&#x27;: &#x27;******&#x27;, &#x27;request_queue_size&#x27;: 5, &#x27;ssl_certificate&#x27;: &#x27;&#x27;, &#x27;cronjob&#x27;: False, &#x27;numthreads&#x27;: None, &#x27;quiet&#x27;: False, &#x27;import_models&#x27;: False, &#x27;timeout&#x27;: 10, &#x27;plain&#x27;: False, &#x27;nobanner&#x27;: False}&gt;</div></td></tr><tr><td style="font-weight:bold;vertical-align:top;">db_sessions</td><td style="vertical-align:top;">:</td><td><div>set([])</div></td></tr><tr><td style="font-weight:bold;vertical-align:top;">debugging</td><td style="vertical-align:top;">:</td><td><div>False</div></td></tr><tr><td style="font-weight:bold;vertical-align:top;">gluon_parent</td><td style="vertical-align:top;">:</td><td><div>/home/pedro/TCC2/APP_WEB/web2py_lab</div></td></tr><tr><td style="font-weight:bold;vertical-align:top;">is_jython</td><td style="vertical-align:top;">:</td><td><div>False</div></td></tr><tr><td style="font-weight:bold;vertical-align:top;">is_pypy</td><td style="vertical-align:top;">:</td><td><div>False</div></td></tr><tr><td style="font-weight:bold;vertical-align:top;">is_source</td><td style="vertical-align:top;">:</td><td><div>True</div></td></tr><tr><td style="font-weight:bold;vertical-align:top;">local_hosts</td><td style="vertical-align:top;">:</td><td><div><table><tr><td><div>127.0.1.1</div></td></tr><tr><td><div>::1</div></td></tr><tr><td><div>ribeiro</div></td></tr><tr><td><div>::ffff:127.0.0.1</div></td></tr><tr><td><div>127.0.0.1</div></td></tr></table></div></td></tr><tr><td style="font-weight:bold;vertical-align:top;">web2py_version</td><td style="vertical-align:top;">:</td><td><div>2.14.6-stable+timestamp.2016.05.10.00.21.47</div></td></tr></table></div></td></tr><tr><td style="font-weight:bold;vertical-align:top;">is_https</td><td style="vertical-align:top;">:</td><td><div>False</div></td></tr><tr><td style="font-weight:bold;vertical-align:top;">is_local</td><td style="vertical-align:top;">:</td><td><div>True</div></td></tr><tr><td style="font-weight:bold;vertical-align:top;">is_restful</td><td style="vertical-align:top;">:</td><td><div>False</div></td></tr><tr><td style="font-weight:bold;vertical-align:top;">is_scheduler</td><td style="vertical-align:top;">:</td><td><div>False</div></td></tr><tr><td style="font-weight:bold;vertical-align:top;">is_shell</td><td style="vertical-align:top;">:</td><td><div>False</div></td></tr><tr><td style="font-weight:bold;vertical-align:top;">now</td><td style="vertical-align:top;">:</td><td><div>datetime.datetime(2017, 10, 22, 9, 28, 13, 468468)</div></td></tr><tr><td style="font-weight:bold;vertical-align:top;">url</td><td style="vertical-align:top;">:</td><td><div>/</div></td></tr><tr><td style="font-weight:bold;vertical-align:top;">utcnow</td><td style="vertical-align:top;">:</td><td><div>datetime.datetime(2017, 10, 22, 13, 28, 13, 468544)</div></td></tr><tr><td style="font-weight:bold;vertical-align:top;">wsgi</td><td style="vertical-align:top;">:</td><td><div>&lt;gluon.main.LazyWSGI object at 0x7fe684cb3210&gt;</div></td></tr></table></div>'
tRp69
sS'frames'
p70
(lp71
(dp72
S'file'
p73
S'/home/pedro/TCC2/APP_WEB/web2py_lab/gluon/restricted.py'
p74
sS'dump'
p75
(dp76
S'code'
p77
S'\'def is_administrador(id_administrador):\\n\\tvalor =... print "Aqui acaba as impress\\xc3\\xb5es!"\\n    return(1)\''
p78
sS'layer'
p79
S"'/home/pedro/TCC2/APP_WEB/web2py_lab/applications/laboratorio/models/helper.py'"
p80
sS'global compile2'
p81
S'<function compile2>'
p82
sS'ccode'
p83
S'undefined'
p84
ssS'lnum'
p85
I226
sS'lines'
p86
(dp87
I224
S'            ccode = code'
p88
sI225
S'        else:'
p89
sI226
S'            ccode = compile2(code, layer)'
p90
sI227
S'        exec ccode in environment'
p91
sI228
S'    except HTTP:'
p92
sI229
S'        raise'
p93
sI230
S'    except RestrictedError:'
p94
sI221
S"    environment['__name__'] = '__restricted__'"
p95
sI222
S'    try:'
p96
sI223
S'        if isinstance(code, types.CodeType):'
p97
ssS'call'
p98
S'(code=\'def is_administrador(id_administrador):\\n\\tvalor =... print "Aqui acaba as impress\\xc3\\xb5es!"\\n    return(1)\', environment={\'A\': <class \'gluon.html.A\'>, \'ANY_OF\': <class \'gluon.validators.ANY_OF\'>, \'ASSIGNJS\': <function ASSIGNJS>, \'Auth\': <class \'gluon.tools.Auth\'>, \'B\': <class \'gluon.html.B\'>, \'BEAUTIFY\': <class \'gluon.html.BEAUTIFY\'>, \'BODY\': <class \'gluon.html.BODY\'>, \'BR\': <class \'gluon.html.BR\'>, \'BUTTON\': <class \'gluon.html.BUTTON\'>, \'CAT\': <class \'gluon.html.CAT\'>, ...}, layer=\'/home/pedro/TCC2/APP_WEB/web2py_lab/applications/laboratorio/models/helper.py\')'
p99
sS'func'
p100
S'restricted'
p101
sa(dp102
g73
S'/home/pedro/TCC2/APP_WEB/web2py_lab/gluon/restricted.py'
p103
sg75
(dp104
S'builtincompile'
p105
S'<built-in function compile>'
p106
sS'code'
p107
S'\'def is_administrador(id_administrador):\\n\\tvalor =... print "Aqui acaba as impress\\xc3\\xb5es!"\\n    return(1)\''
p108
sS'code.rstrip'
p109
S'<built-in method rstrip of str object>'
p110
sS').replace'
p111
g84
sS'layer'
p112
S"'/home/pedro/TCC2/APP_WEB/web2py_lab/applications/laboratorio/models/helper.py'"
p113
ssg85
I209
sg86
(dp114
I204
S'def compile2(code, layer):'
p115
sI205
S'    """'
p116
sI206
S"    The ``+'\\\\n'`` is necessary else compile fails when code ends in a comment."
p117
sI207
S'    """'
p118
sI208
S''
sI209
S"    return compile(code.rstrip().replace('\\r\\n', '\\n') + '\\n', layer, 'exec')"
p119
sI210
S''
sI211
S''
sI212
S"def restricted(code, environment=None, layer='Unknown'):"
p120
sI213
S'    """'
p121
ssg98
S'(code=\'def is_administrador(id_administrador):\\n\\tvalor =... print "Aqui acaba as impress\\xc3\\xb5es!"\\n    return(1)\', layer=\'/home/pedro/TCC2/APP_WEB/web2py_lab/applications/laboratorio/models/helper.py\')'
p122
sg100
S'compile2'
p123
sasS'pyver'
p124
S'Python 2.7.13: /usr/bin/python (prefix: /usr)'
p125
sS'session'
p126
g68
(S's\xe6\x07\x00\x00<div><table><tr><td style="font-weight:bold;vertical-align:top;">auth</td><td style="vertical-align:top;">:</td><td><div><table><tr><td style="font-weight:bold;vertical-align:top;">expiration</td><td style="vertical-align:top;">:</td><td><div>3600</div></td></tr><tr><td style="font-weight:bold;vertical-align:top;">hmac_key</td><td style="vertical-align:top;">:</td><td><div>fbd3dd9c-8610-4d7f-a8a9-aacedcc6bc80</div></td></tr><tr><td style="font-weight:bold;vertical-align:top;">last_visit</td><td style="vertical-align:top;">:</td><td><div>datetime.datetime(2017, 10, 22, 9, 28, 13, 468468)</div></td></tr><tr><td style="font-weight:bold;vertical-align:top;">user</td><td style="vertical-align:top;">:</td><td><div><table><tr><td style="font-weight:bold;vertical-align:top;">email</td><td style="vertical-align:top;">:</td><td><div>pedroribeiro212@gmail.com</div></td></tr><tr><td style="font-weight:bold;vertical-align:top;">first_name</td><td style="vertical-align:top;">:</td><td><div>Pedro</div></td></tr><tr><td style="font-weight:bold;vertical-align:top;">id</td><td style="vertical-align:top;">:</td><td><div>1L</div></td></tr><tr><td style="font-weight:bold;vertical-align:top;">last_name</td><td style="vertical-align:top;">:</td><td><div>Augusto</div></td></tr><tr><td style="font-weight:bold;vertical-align:top;">registration_id</td><td style="vertical-align:top;">:</td><td><div></div></td></tr><tr><td style="font-weight:bold;vertical-align:top;">registration_key</td><td style="vertical-align:top;">:</td><td><div></div></td></tr><tr><td style="font-weight:bold;vertical-align:top;">reset_password_key</td><td style="vertical-align:top;">:</td><td><div></div></td></tr></table></div></td></tr><tr><td style="font-weight:bold;vertical-align:top;">user_groups</td><td style="vertical-align:top;">:</td><td><div><table><tr><td style="font-weight:bold;vertical-align:top;">1</td><td style="vertical-align:top;">:</td><td><div>Admin</div></td></tr></table></div></td></tr></table></div></td></tr></table></div>'
tRp127
sS'etype'
p128
S"<type 'exceptions.IndentationError'>"
p129
sS'date'
p130
S'Sun Oct 22 09:28:13 2017'
p131
sS'response'
p132
g68
(S's\x8e\x17\x00\x00<div><table><tr><td style="font-weight:bold;vertical-align:top;">body</td><td style="vertical-align:top;">:</td><td><div>&lt;cStringIO.StringO object at 0x7fe6a4163810&gt;</div></td></tr><tr><td style="font-weight:bold;vertical-align:top;">cookies</td><td style="vertical-align:top;">:</td><td><div><table><tr><td style="font-weight:bold;vertical-align:top;">session_id_laboratorio</td><td style="vertical-align:top;">:</td><td><div>127.0.0.1-1a7613b3-e5e7-4b17-839f-f79c53a49c74<table><tr><td style="font-weight:bold;vertical-align:top;">comment</td><td style="vertical-align:top;">:</td><td><div></div></td></tr><tr><td style="font-weight:bold;vertical-align:top;">domain</td><td style="vertical-align:top;">:</td><td><div></div></td></tr><tr><td style="font-weight:bold;vertical-align:top;">expires</td><td style="vertical-align:top;">:</td><td><div></div></td></tr><tr><td style="font-weight:bold;vertical-align:top;">httponly</td><td style="vertical-align:top;">:</td><td><div></div></td></tr><tr><td style="font-weight:bold;vertical-align:top;">max-age</td><td style="vertical-align:top;">:</td><td><div></div></td></tr><tr><td style="font-weight:bold;vertical-align:top;">path</td><td style="vertical-align:top;">:</td><td><div>/</div></td></tr><tr><td style="font-weight:bold;vertical-align:top;">secure</td><td style="vertical-align:top;">:</td><td><div></div></td></tr><tr><td style="font-weight:bold;vertical-align:top;">version</td><td style="vertical-align:top;">:</td><td><div></div></td></tr></table></div></td></tr></table></div></td></tr><tr><td style="font-weight:bold;vertical-align:top;">delimiters</td><td style="vertical-align:top;">:</td><td><div><table><tr><td><div>{{</div></td></tr><tr><td><div>}}</div></td></tr></table></div></td></tr><tr><td style="font-weight:bold;vertical-align:top;">files</td><td style="vertical-align:top;">:</td><td><div><table></table></div></td></tr><tr><td style="font-weight:bold;vertical-align:top;">flash</td><td style="vertical-align:top;">:</td><td><div></div></td></tr><tr><td style="font-weight:bold;vertical-align:top;">form_label_separator</td><td style="vertical-align:top;">:</td><td><div>: </div></td></tr><tr><td style="font-weight:bold;vertical-align:top;">formstyle</td><td style="vertical-align:top;">:</td><td><div>table3cols</div></td></tr><tr><td style="font-weight:bold;vertical-align:top;">generic_patterns</td><td style="vertical-align:top;">:</td><td><div><table><tr><td><div>*</div></td></tr></table></div></td></tr><tr><td style="font-weight:bold;vertical-align:top;">headers</td><td style="vertical-align:top;">:</td><td><div><table><tr><td style="font-weight:bold;vertical-align:top;">X-Powered-By</td><td style="vertical-align:top;">:</td><td><div>web2py</div></td></tr></table></div></td></tr><tr><td style="font-weight:bold;vertical-align:top;">menu</td><td style="vertical-align:top;">:</td><td><div><table></table></div></td></tr><tr><td style="font-weight:bold;vertical-align:top;">meta</td><td style="vertical-align:top;">:</td><td><div><table></table></div></td></tr><tr><td style="font-weight:bold;vertical-align:top;">models_to_run</td><td style="vertical-align:top;">:</td><td><div><table><tr><td><div>^\\w+\\.py$</div></td></tr><tr><td><div>^home/\\w+\\.py$</div></td></tr><tr><td><div>^home/index/\\w+\\.py$</div></td></tr></table></div></td></tr><tr><td style="font-weight:bold;vertical-align:top;">postprocessing</td><td style="vertical-align:top;">:</td><td><div><table></table></div></td></tr><tr><td style="font-weight:bold;vertical-align:top;">session_client</td><td style="vertical-align:top;">:</td><td><div>127.0.0.1</div></td></tr><tr><td style="font-weight:bold;vertical-align:top;">session_cookie_compression_level</td><td style="vertical-align:top;">:</td><td><div>None</div></td></tr><tr><td style="font-weight:bold;vertical-align:top;">session_cookie_expires</td><td style="vertical-align:top;">:</td><td><div>None</div></td></tr><tr><td style="font-weight:bold;vertical-align:top;">session_data_name</td><td style="vertical-align:top;">:</td><td><div>session_data_laboratorio</div></td></tr><tr><td style="font-weight:bold;vertical-align:top;">session_file</td><td style="vertical-align:top;">:</td><td><div>&lt;open file &#x27;/home/pedro/TCC2/APP_WEB/web2py_lab/applications/laboratorio/sessions/1f7/1f8/127.0.0.1-1a7613b3-e5e7-4b17-839f-f79c53a49c74&#x27;, mode &#x27;rb+&#x27; at 0x7fe6a445b4b0&gt;</div></td></tr><tr><td style="font-weight:bold;vertical-align:top;">session_filename</td><td style="vertical-align:top;">:</td><td><div>/home/pedro/TCC2/APP_WEB/web2py_lab/applications/laboratorio/sessions/127.0.0.1-1a7613b3-e5e7-4b17-839f-f79c53a49c74</div></td></tr><tr><td style="font-weight:bold;vertical-align:top;">session_hash</td><td style="vertical-align:top;">:</td><td><div>78f1e75b45095bf2cce2509e220da814</div></td></tr><tr><td style="font-weight:bold;vertical-align:top;">session_id</td><td style="vertical-align:top;">:</td><td><div>127.0.0.1-1a7613b3-e5e7-4b17-839f-f79c53a49c74</div></td></tr><tr><td style="font-weight:bold;vertical-align:top;">session_id_name</td><td style="vertical-align:top;">:</td><td><div>session_id_laboratorio</div></td></tr><tr><td style="font-weight:bold;vertical-align:top;">session_locked</td><td style="vertical-align:top;">:</td><td><div>True</div></td></tr><tr><td style="font-weight:bold;vertical-align:top;">session_masterapp</td><td style="vertical-align:top;">:</td><td><div>laboratorio</div></td></tr><tr><td style="font-weight:bold;vertical-align:top;">session_new</td><td style="vertical-align:top;">:</td><td><div>False</div></td></tr><tr><td style="font-weight:bold;vertical-align:top;">session_storage_type</td><td style="vertical-align:top;">:</td><td><div>file</div></td></tr><tr><td style="font-weight:bold;vertical-align:top;">status</td><td style="vertical-align:top;">:</td><td><div>200</div></td></tr><tr><td style="font-weight:bold;vertical-align:top;">view</td><td style="vertical-align:top;">:</td><td><div>home/index.html</div></td></tr></table></div>'
tRp133
sS'locals'
p134
(dp135
g4
S"'/home/pedro/TCC2/APP_WEB/web2py_lab/applications/laboratorio/models/helper.py'"
p136
sg6
S'\'def is_administrador(id_administrador):\\n\\tvalor =... print "Aqui acaba as impress\\xc3\\xb5es!"\\n    return(1)\''
p137
sssS'traceback'
p138
S'Traceback (most recent call last):\n  File "/home/pedro/TCC2/APP_WEB/web2py_lab/gluon/restricted.py", line 226, in restricted\n    ccode = compile2(code, layer)\n  File "/home/pedro/TCC2/APP_WEB/web2py_lab/gluon/restricted.py", line 209, in compile2\n    return compile(code.rstrip().replace(\'\\r\\n\', \'\\n\') + \'\\n\', layer, \'exec\')\n  File "/home/pedro/TCC2/APP_WEB/web2py_lab/applications/laboratorio/models/helper.py", line 177\n    print query_data\n    ^\nIndentationError: unexpected indent\n'
p139
s.